; Function Attrs: nounwind uwtable
define internal range(i32 0, 101) i32 @rtsp_probe(ptr noundef readonly captures(none) %0) #0 {
  %2 = load ptr, ptr %0, align 8, !tbaa !64
  %3 = tail call i32 @av_strstart(ptr noundef %2, ptr noundef nonnull @.str.55, ptr noundef null) #11
  %.not = icmp eq i32 %3, 0
  br i1 %.not, label %4, label %7

4:                                                ; preds = %1
  %5 = load ptr, ptr %0, align 8, !tbaa !64
  %6 = tail call i32 @av_strstart(ptr noundef %5, ptr noundef nonnull @.str.56, ptr noundef null) #11
  %.not2 = icmp eq i32 %6, 0
  %spec.select = select i1 %.not2, i32 0, i32 100
  br label %7

7:                                                ; preds = %4, %1
  %.0 = phi i32 [ 100, %1 ], [ %spec.select, %4 ]
  ret i32 %.0
}